target datalayout = "e-m:e-p270:32:32-p271:32:32-p272:64:64-i64:64-i128:128-f80:128-n8:16:32:64-S128"
target triple = "x86_64-pc-linux-gnu"

%"struct.std::pair.44" = type { ptr, ptr }
%"class.Luau::Set" = type { %"class.Luau::DenseHashMap", i64 }
%"class.Luau::DenseHashMap" = type { %"class.Luau::detail::DenseHashTable" }
%"class.Luau::detail::DenseHashTable" = type <{ ptr, i64, i64, %"struct.std::pair.44", [8 x i8] }>
%"struct.std::pair.93" = type <{ %"struct.std::pair.44", i8, [7 x i8] }>

; Function Attrs: mustprogress nounwind uwtable
define linkonce_odr dso_local void @_ZN4Luau6detail16ItemInterfaceMapISt4pairIPKNS_4TypeES5_EbE7destroyEPS2_IS6_bEm(ptr noundef %0, i64 noundef %1) #2 comdat align 2 {
  %3 = alloca ptr, align 8
  %4 = alloca i64, align 8
  %5 = alloca i64, align 8
  store ptr %0, ptr %3, align 8, !tbaa !350
  store i64 %1, ptr %4, align 8, !tbaa !125
  call void @llvm.lifetime.start.p0(i64 8, ptr %5) #19
  store i64 0, ptr %5, align 8, !tbaa !125
  br label %6

6:                                                ; preds = %12, %2
  %7 = load i64, ptr %5, align 8, !tbaa !125
  %8 = load i64, ptr %4, align 8, !tbaa !125
  %9 = icmp ult i64 %7, %8
  br i1 %9, label %11, label %10

10:                                               ; preds = %6
  call void @llvm.lifetime.end.p0(i64 8, ptr %5) #19
  br label %15

11:                                               ; preds = %6
  br label %12

12:                                               ; preds = %11
  %13 = load i64, ptr %5, align 8, !tbaa !125
  %14 = add i64 %13, 1
  store i64 %14, ptr %5, align 8, !tbaa !125
  br label %6, !llvm.loop !351

15:                                               ; preds = %10
  ret void
}

; Function Attrs: noinline noreturn nounwind uwtable
define linkonce_odr hidden void @__clang_call_terminate(ptr noundef %0) #9 comdat {
  %2 = call ptr @__cxa_begin_catch(ptr %0) #19
  call void @_ZSt9terminatev() #20
  unreachable
}

; Function Attrs: mustprogress uwtable
define linkonce_odr dso_local void @_ZN4Luau6detail14DenseHashTableISt4pairIPKNS_4TypeES5_ES2_IS6_bES2_IKS6_bENS0_16ItemInterfaceMapIS6_bEENS_12TypePairHashESt8equal_toIS6_EE7destroyEv(ptr noundef nonnull align 8 dereferenceable(42) %0) #3 comdat align 2 {
  %2 = alloca ptr, align 8
  store ptr %0, ptr %2, align 8, !tbaa !346
  %3 = load ptr, ptr %2, align 8
  %4 = getelementptr inbounds nuw %"class.Luau::detail::DenseHashTable", ptr %3, i32 0, i32 0
  %5 = load ptr, ptr %4, align 8, !tbaa !348
  %6 = getelementptr inbounds nuw %"class.Luau::detail::DenseHashTable", ptr %3, i32 0, i32 1
  %7 = load i64, ptr %6, align 8, !tbaa !349
  call void @_ZN4Luau6detail16ItemInterfaceMapISt4pairIPKNS_4TypeES5_EbE7destroyEPS2_IS6_bEm(ptr noundef %5, i64 noundef %7)
  %8 = getelementptr inbounds nuw %"class.Luau::detail::DenseHashTable", ptr %3, i32 0, i32 0
  %9 = load ptr, ptr %8, align 8, !tbaa !348
  call void @_ZdlPv(ptr noundef %9) #19
  %10 = getelementptr inbounds nuw %"class.Luau::detail::DenseHashTable", ptr %3, i32 0, i32 0
  store ptr null, ptr %10, align 8, !tbaa !348
  %11 = getelementptr inbounds nuw %"class.Luau::detail::DenseHashTable", ptr %3, i32 0, i32 1
  store i64 0, ptr %11, align 8, !tbaa !349
  ret void
}

; Function Attrs: mustprogress nounwind uwtable
define linkonce_odr dso_local void @_ZN4Luau6detail16ItemInterfaceMapISt4pairIPKNS_4TypeES5_EbE4fillEPS2_IS6_bEmRKS6_(ptr noundef %0, i64 noundef %1, ptr noundef nonnull align 8 dereferenceable(16) %2) #2 comdat align 2 {
  %4 = alloca ptr, align 8
  %5 = alloca i64, align 8
  %6 = alloca ptr, align 8
  %7 = alloca i64, align 8
  store ptr %0, ptr %4, align 8, !tbaa !350
  store i64 %1, ptr %5, align 8, !tbaa !125
  store ptr %2, ptr %6, align 8, !tbaa !101
  call void @llvm.lifetime.start.p0(i64 8, ptr %7) #19
  store i64 0, ptr %7, align 8, !tbaa !125
  br label %8

8:                                                ; preds = %23, %3
  %9 = load i64, ptr %7, align 8, !tbaa !125
  %10 = load i64, ptr %5, align 8, !tbaa !125
  %11 = icmp ult i64 %9, %10
  br i1 %11, label %13, label %12

12:                                               ; preds = %8
  call void @llvm.lifetime.end.p0(i64 8, ptr %7) #19
  br label %26

13:                                               ; preds = %8
  %14 = load ptr, ptr %4, align 8, !tbaa !350
  %15 = load i64, ptr %7, align 8, !tbaa !125
  %16 = getelementptr inbounds nuw %"struct.std::pair.93", ptr %14, i64 %15
  %17 = getelementptr inbounds nuw %"struct.std::pair.93", ptr %16, i32 0, i32 0
  %18 = load ptr, ptr %6, align 8, !tbaa !101
  call void @llvm.memcpy.p0.p0.i64(ptr align 8 %17, ptr align 8 %18, i64 16, i1 false)
  %19 = load ptr, ptr %4, align 8, !tbaa !350
  %20 = load i64, ptr %7, align 8, !tbaa !125
  %21 = getelementptr inbounds nuw %"struct.std::pair.93", ptr %19, i64 %20
  %22 = getelementptr inbounds nuw %"struct.std::pair.93", ptr %21, i32 0, i32 1
  store i8 0, ptr %22, align 8, !tbaa !13
  br label %23

23:                                               ; preds = %13
  %24 = load i64, ptr %7, align 8, !tbaa !125
  %25 = add i64 %24, 1
  store i64 %25, ptr %7, align 8, !tbaa !125
  br label %8, !llvm.loop !551

26:                                               ; preds = %12
  ret void
}

; Function Attrs: mustprogress nounwind uwtable
define linkonce_odr dso_local void @_ZN4Luau6detail14DenseHashTableISt4pairIPKNS_4TypeES5_ES2_IS6_bES2_IKS6_bENS0_16ItemInterfaceMapIS6_bEENS_12TypePairHashESt8equal_toIS6_EED2Ev(ptr noundef nonnull align 8 dereferenceable(42) %0) unnamed_addr #2 comdat align 2 personality ptr @__gxx_personality_v0 {
  %2 = alloca ptr, align 8
  store ptr %0, ptr %2, align 8, !tbaa !346
  %3 = load ptr, ptr %2, align 8
  %4 = getelementptr inbounds nuw %"class.Luau::detail::DenseHashTable", ptr %3, i32 0, i32 0
  %5 = load ptr, ptr %4, align 8, !tbaa !348
  %6 = icmp ne ptr %5, null
  br i1 %6, label %7, label %9

7:                                                ; preds = %1
  invoke void @_ZN4Luau6detail14DenseHashTableISt4pairIPKNS_4TypeES5_ES2_IS6_bES2_IKS6_bENS0_16ItemInterfaceMapIS6_bEENS_12TypePairHashESt8equal_toIS6_EE7destroyEv(ptr noundef nonnull align 8 dereferenceable(42) %3)
          to label %8 unwind label %10

8:                                                ; preds = %7
  br label %9

9:                                                ; preds = %8, %1
  ret void

10:                                               ; preds = %7
  %11 = landingpad { ptr, i32 }
          catch ptr null
  %12 = extractvalue { ptr, i32 } %11, 0
  call void @__clang_call_terminate(ptr %12) #20
  unreachable
}

; Function Attrs: mustprogress uwtable
define linkonce_odr dso_local void @_ZN4Luau6detail14DenseHashTableISt4pairIPKNS_4TypeES5_ES2_IS6_bES2_IKS6_bENS0_16ItemInterfaceMapIS6_bEENS_12TypePairHashESt8equal_toIS6_EEC2ERS8_m(ptr noundef nonnull align 8 dereferenceable(42) %0, ptr noundef nonnull align 8 dereferenceable(16) %1, i64 noundef %2) unnamed_addr #3 comdat align 2 {
  %4 = alloca ptr, align 8
  %5 = alloca ptr, align 8
  %6 = alloca i64, align 8
  store ptr %0, ptr %4, align 8, !tbaa !346
  store ptr %1, ptr %5, align 8, !tbaa !101
  store i64 %2, ptr %6, align 8, !tbaa !125
  %7 = load ptr, ptr %4, align 8
  %8 = getelementptr inbounds nuw %"class.Luau::detail::DenseHashTable", ptr %7, i32 0, i32 0
  store ptr null, ptr %8, align 8, !tbaa !348
  %9 = getelementptr inbounds nuw %"class.Luau::detail::DenseHashTable", ptr %7, i32 0, i32 1
  store i64 0, ptr %9, align 8, !tbaa !349
  %10 = getelementptr inbounds nuw %"class.Luau::detail::DenseHashTable", ptr %7, i32 0, i32 2
  store i64 0, ptr %10, align 8, !tbaa !539
  %11 = getelementptr inbounds nuw %"class.Luau::detail::DenseHashTable", ptr %7, i32 0, i32 3
  %12 = load ptr, ptr %5, align 8, !tbaa !101
  call void @llvm.memcpy.p0.p0.i64(ptr align 8 %11, ptr align 8 %12, i64 16, i1 false)
  %13 = load i64, ptr %6, align 8, !tbaa !125
  %14 = icmp ne i64 %13, 0
  br i1 %14, label %15, label %26

15:                                               ; preds = %3
  %16 = load i64, ptr %6, align 8, !tbaa !125
  %17 = mul i64 24, %16
  %18 = call noalias noundef nonnull ptr @_Znwm(i64 noundef %17) #25
  %19 = getelementptr inbounds nuw %"class.Luau::detail::DenseHashTable", ptr %7, i32 0, i32 0
  store ptr %18, ptr %19, align 8, !tbaa !348
  %20 = load i64, ptr %6, align 8, !tbaa !125
  %21 = getelementptr inbounds nuw %"class.Luau::detail::DenseHashTable", ptr %7, i32 0, i32 1
  store i64 %20, ptr %21, align 8, !tbaa !349
  %22 = getelementptr inbounds nuw %"class.Luau::detail::DenseHashTable", ptr %7, i32 0, i32 0
  %23 = load ptr, ptr %22, align 8, !tbaa !348
  %24 = load i64, ptr %6, align 8, !tbaa !125
  %25 = load ptr, ptr %5, align 8, !tbaa !101
  call void @_ZN4Luau6detail16ItemInterfaceMapISt4pairIPKNS_4TypeES5_EbE4fillEPS2_IS6_bEmRKS6_(ptr noundef %23, i64 noundef %24, ptr noundef nonnull align 8 dereferenceable(16) %25)
  br label %26

26:                                               ; preds = %15, %3
  ret void
}

; Function Attrs: inlinehint mustprogress nounwind uwtable
define linkonce_odr dso_local void @_ZN4Luau12DenseHashMapISt4pairIPKNS_4TypeES4_EbNS_12TypePairHashESt8equal_toIS5_EED2Ev(ptr noundef nonnull align 8 dereferenceable(48) %0) unnamed_addr #6 comdat align 2 {
  %2 = alloca ptr, align 8
  store ptr %0, ptr %2, align 8, !tbaa !344
  %3 = load ptr, ptr %2, align 8
  %4 = getelementptr inbounds nuw %"class.Luau::DenseHashMap", ptr %3, i32 0, i32 0
  call void @_ZN4Luau6detail14DenseHashTableISt4pairIPKNS_4TypeES5_ES2_IS6_bES2_IKS6_bENS0_16ItemInterfaceMapIS6_bEENS_12TypePairHashESt8equal_toIS6_EED2Ev(ptr noundef nonnull align 8 dereferenceable(42) %4) #19
  ret void
}

; Function Attrs: mustprogress uwtable
define linkonce_odr dso_local void @_ZN4Luau12DenseHashMapISt4pairIPKNS_4TypeES4_EbNS_12TypePairHashESt8equal_toIS5_EEC2ERKS5_m(ptr noundef nonnull align 8 dereferenceable(48) %0, ptr noundef nonnull align 8 dereferenceable(16) %1, i64 noundef %2) unnamed_addr #3 comdat align 2 {
  %4 = alloca ptr, align 8
  %5 = alloca ptr, align 8
  %6 = alloca i64, align 8
  store ptr %0, ptr %4, align 8, !tbaa !344
  store ptr %1, ptr %5, align 8, !tbaa !101
  store i64 %2, ptr %6, align 8, !tbaa !125
  %7 = load ptr, ptr %4, align 8
  %8 = getelementptr inbounds nuw %"class.Luau::DenseHashMap", ptr %7, i32 0, i32 0
  %9 = load ptr, ptr %5, align 8, !tbaa !101
  %10 = load i64, ptr %6, align 8, !tbaa !125
  call void @_ZN4Luau6detail14DenseHashTableISt4pairIPKNS_4TypeES5_ES2_IS6_bES2_IKS6_bENS0_16ItemInterfaceMapIS6_bEENS_12TypePairHashESt8equal_toIS6_EEC2ERS8_m(ptr noundef nonnull align 8 dereferenceable(42) %8, ptr noundef nonnull align 8 dereferenceable(16) %9, i64 noundef %10)
  ret void
}

; Function Attrs: inlinehint mustprogress nounwind uwtable
define linkonce_odr dso_local void @_ZN4Luau3SetISt4pairIPKNS_4TypeES4_ENS_12TypePairHashEED2Ev(ptr noundef nonnull align 8 dereferenceable(56) %0) unnamed_addr #6 comdat align 2 {
  %2 = alloca ptr, align 8
  store ptr %0, ptr %2, align 8, !tbaa !52
  %3 = load ptr, ptr %2, align 8
  %4 = getelementptr inbounds nuw %"class.Luau::Set", ptr %3, i32 0, i32 0
  call void @_ZN4Luau12DenseHashMapISt4pairIPKNS_4TypeES4_EbNS_12TypePairHashESt8equal_toIS5_EED2Ev(ptr noundef nonnull align 8 dereferenceable(48) %4) #19
  ret void
}

; Function Attrs: mustprogress uwtable
define linkonce_odr dso_local void @_ZN4Luau3SetISt4pairIPKNS_4TypeES4_ENS_12TypePairHashEEC2ERKS5_(ptr noundef nonnull align 8 dereferenceable(56) %0, ptr noundef nonnull align 8 dereferenceable(16) %1) unnamed_addr #3 comdat align 2 {
  %3 = alloca ptr, align 8
  %4 = alloca ptr, align 8
  store ptr %0, ptr %3, align 8, !tbaa !52
  store ptr %1, ptr %4, align 8, !tbaa !101
  %5 = load ptr, ptr %3, align 8
  %6 = getelementptr inbounds nuw %"class.Luau::Set", ptr %5, i32 0, i32 0
  %7 = load ptr, ptr %4, align 8, !tbaa !101
  call void @_ZN4Luau12DenseHashMapISt4pairIPKNS_4TypeES4_EbNS_12TypePairHashESt8equal_toIS5_EEC2ERKS5_m(ptr noundef nonnull align 8 dereferenceable(48) %6, ptr noundef nonnull align 8 dereferenceable(16) %7, i64 noundef 0)
  %8 = getelementptr inbounds nuw %"class.Luau::Set", ptr %5, i32 0, i32 1
  store i64 0, ptr %8, align 8, !tbaa !110
  ret void
}

; Function Attrs: mustprogress nounwind uwtable
define linkonce_odr dso_local void @_ZNSt4pairIPKN4Luau4TypeES3_EC2IS3_S3_TnNSt9enable_ifIXsr6__and_ISt37__is_implicitly_default_constructibleIT_ES7_IT0_EEE5valueEbE4typeELb1EEEv(ptr noundef nonnull align 8 dereferenceable(16) %0) unnamed_addr #2 comdat align 2 {
  %2 = alloca ptr, align 8
  store ptr %0, ptr %2, align 8, !tbaa !101
  %3 = load ptr, ptr %2, align 8
  %4 = getelementptr inbounds nuw %"struct.std::pair.44", ptr %3, i32 0, i32 0
  store ptr null, ptr %4, align 8, !tbaa !105
  %5 = getelementptr inbounds nuw %"struct.std::pair.44", ptr %3, i32 0, i32 1
  store ptr null, ptr %5, align 8, !tbaa !107
  ret void
}

; Function Attrs: mustprogress uwtable
define dso_local noundef i32 @_ZN4Luau6relateEPKNS_4TypeES2_(ptr noundef %0, ptr noundef %1) #3 personality ptr @__gxx_personality_v0 {
  %3 = alloca ptr, align 8
  %4 = alloca ptr, align 8
  %5 = alloca %"class.Luau::Set", align 8
  %6 = alloca %"struct.std::pair.44", align 8
  %7 = alloca ptr, align 8
  %8 = alloca i32, align 4
  store ptr %0, ptr %3, align 8, !tbaa !29
  store ptr %1, ptr %4, align 8, !tbaa !29
  call void @llvm.lifetime.start.p0(i64 56, ptr %5) #19
  call void @llvm.lifetime.start.p0(i64 16, ptr %6) #19
  call void @_ZNSt4pairIPKN4Luau4TypeES3_EC2IS3_S3_TnNSt9enable_ifIXsr6__and_ISt37__is_implicitly_default_constructibleIT_ES7_IT0_EEE5valueEbE4typeELb1EEEv(ptr noundef nonnull align 8 dereferenceable(16) %6)
  call void @_ZN4Luau3SetISt4pairIPKNS_4TypeES4_ENS_12TypePairHashEEC2ERKS5_(ptr noundef nonnull align 8 dereferenceable(56) %5, ptr noundef nonnull align 8 dereferenceable(16) %6)
  call void @llvm.lifetime.end.p0(i64 16, ptr %6) #19
  %9 = load ptr, ptr %3, align 8, !tbaa !29
  %10 = load ptr, ptr %4, align 8, !tbaa !29
  %11 = invoke noundef i32 @_ZN4Luau6relateEPKNS_4TypeES2_RNS_3SetISt4pairIS2_S2_ENS_12TypePairHashEEE(ptr noundef %9, ptr noundef %10, ptr noundef nonnull align 8 dereferenceable(56) %5)
          to label %12 unwind label %13

12:                                               ; preds = %2
  call void @_ZN4Luau3SetISt4pairIPKNS_4TypeES4_ENS_12TypePairHashEED2Ev(ptr noundef nonnull align 8 dereferenceable(56) %5) #19
  call void @llvm.lifetime.end.p0(i64 56, ptr %5) #19
  ret i32 %11

13:                                               ; preds = %2
  %14 = landingpad { ptr, i32 }
          cleanup
  %15 = extractvalue { ptr, i32 } %14, 0
  store ptr %15, ptr %7, align 8
  %16 = extractvalue { ptr, i32 } %14, 1
  store i32 %16, ptr %8, align 4
  call void @_ZN4Luau3SetISt4pairIPKNS_4TypeES4_ENS_12TypePairHashEED2Ev(ptr noundef nonnull align 8 dereferenceable(56) %5) #19
  call void @llvm.lifetime.end.p0(i64 56, ptr %5) #19
  br label %17

17:                                               ; preds = %13
  %18 = load ptr, ptr %7, align 8
  %19 = load i32, ptr %8, align 4
  %20 = insertvalue { ptr, i32 } poison, ptr %18, 0
  %21 = insertvalue { ptr, i32 } %20, i32 %19, 1
  resume { ptr, i32 } %21
}